; Function Attrs: mustprogress nounwind uwtable
define dso_local noundef zeroext i1 @_ZN4llvm4coro18declaresIntrinsicsERKNS_6ModuleESt16initializer_listINS_9StringRefEE(ptr noundef nonnull align 8 dereferenceable(857) %0, ptr readonly %1, i64 %2) local_unnamed_addr #0 {
  %4 = getelementptr inbounds %"class.llvm::StringRef", ptr %1, i64 %2
  %.not13.not = icmp eq i64 %2, 0
  br i1 %.not13.not, label %._crit_edge, label %.lr.ph

.lr.ph:                                           ; preds = %3, %.lr.ph
  %.01014 = phi ptr [ %6, %.lr.ph ], [ %1, %3 ]
  %.sroa.01.0.copyload = load ptr, ptr %.01014, align 8
  %.sroa.22.0..sroa_idx = getelementptr inbounds i8, ptr %.01014, i64 8
  %.sroa.22.0.copyload = load i64, ptr %.sroa.22.0..sroa_idx, align 8
  %5 = tail call noundef ptr @_ZNK4llvm6Module13getNamedValueENS_9StringRefE(ptr noundef nonnull align 8 dereferenceable(857) %0, ptr %.sroa.01.0.copyload, i64 %.sroa.22.0.copyload) #14
  %.not11.not = icmp ne ptr %5, null
  %6 = getelementptr inbounds i8, ptr %.01014, i64 16
  %.not.not = icmp eq ptr %6, %4
  %or.cond = select i1 %.not11.not, i1 true, i1 %.not.not
  br i1 %or.cond, label %._crit_edge, label %.lr.ph

._crit_edge:                                      ; preds = %.lr.ph, %3
  %.not.lcssa = phi i1 [ false, %3 ], [ %.not11.not, %.lr.ph ]
  ret i1 %.not.lcssa
}